Certificate:
    Data:
        Version: 3 (0x2)
        Serial Number:
            93:a5:80:a1:e0:d9:b5:c3
    Signature Algorithm: sha1WithRSAEncryption
        Issuer: C=US, ST=CA, O=Internet Widgits Pty Ltd, CN=notreally.eff.org/emailAddress=notreally@eff.org
        Validity
            Not Before: Jul  7 20:09:43 2012 GMT
            Not After : Jul  7 20:09:43 2013 GMT
        Subject: C=US, ST=CA, L=San Francisco, O=I, OU=I, CN=example.com
        Subject Public Key Info:
            Public Key Algorithm: rsaEncryption
                Public-Key: (2048 bit)
                Modulus:
                    00:cb:e5:99:e2:d7:c3:b4:01:10:63:6f:a0:5b:ce:
                    68:dc:06:6b:76:96:a2:b7:d7:a3:6e:1e:bf:48:f0:
                    0b:bd:d7:2b:08:46:56:2b:5d:55:60:47:44:c4:2c:
                    9f:3d:22:91:a7:97:02:3a:f4:af:88:b3:76:89:1b:
                    74:53:7b:b5:36:c6:28:a0:0d:cb:11:14:1c:8f:2f:
                    c7:ed:b0:b1:4a:49:0e:18:b4:f4:c5:0a:75:63:72:
                    f7:d4:68:c5:36:cb:8f:f2:11:db:48:0f:17:8f:cb:
                    4a:df:f0:6d:28:a5:c9:f3:33:b6:af:2c:3d:f3:5c:
                    88:32:39:d8:0e:e2:4d:23:2b:be:81:b0:2c:29:74:
                    b7:f8:61:81:a7:0b:e8:0f:0e:bf:8a:04:4b:bf:0a:
                    00:11:c6:f0:b7:83:95:6d:52:87:20:15:f7:2b:da:
                    da:ab:61:fc:94:14:f1:ba:f2:ad:7a:18:f1:b6:a2:
                    ba:13:2b:41:cd:4f:97:82:1f:c7:8e:29:7d:bb:86:
                    50:13:7e:78:6c:74:e6:9d:0b:65:1b:7e:b7:17:8b:
                    9f:2e:99:1e:d9:d8:54:5f:47:9c:c9:96:f8:86:3d:
                    87:41:fd:67:71:e9:48:17:30:d5:b2:ef:cc:9e:90:
                    a4:4c:32:fa:93:b2:21:66:92:95:62:5b:4d:e0:80:
                    ff:25
                Exponent: 65537 (0x10001)
        X509v3 extensions:
            X509v3 Basic Constraints: 
                CA:FALSE
            Netscape Comment: 
                OpenSSL Generated Certificate
            X509v3 Subject Key Identifier: 
                1A:3F:00:7C:09:C8:12:FC:EF:A8:E9:B5:71:EC:D0:A1:AA:20:1E:55
            X509v3 Authority Key Identifier: 
                keyid:F8:53:C1:EA:D3:29:34:D2:3F:B5:E5:ED:D0:C1:79:34:DA:13:BC:E8

    Signature Algorithm: sha1WithRSAEncryption
         4b:db:6c:c8:4f:4c:be:54:e3:90:fb:9a:6e:9c:ec:4e:af:ca:
         17:b5:3a:e7:d8:10:b1:cc:77:30:3d:20:3a:f7:b6:61:ce:1d:
         62:09:a9:58:27:ab:35:ef:be:63:e4:18:3a:63:04:41:a9:99:
         80:ba:1d:b1:1c:1d:9c:f7:0b:ca:3a:8b:86:ea:39:95:bf:ca:
         27:1d:21:13:c8:c3:f0:a4:81:04:6f:6d:8f:8c:7d:ce:31:38:
         d7:1f:05:3d:3b:05:3c:f0:da:e9:3c:b3:1b:36:4d:b7:39:82:
         6e:42:8c:c5:05:02:2a:ab:3e:ef:09:34:1c:8b:08:26:d3:de:
         4b:ee:a8:d5:25:ce:18:47:89:3f:0c:3c:04:03:a6:35:a3:21:
         14:b6:fc:7a:04:76:b6:69:8b:ce:5c:90:34:f5:25:de:f1:c0:
         20:a3:38:6d:c3:ef:b4:1a:36:8b:34:a6:91:f0:d6:be:60:39:
         c6:b7:1b:00:da:80:dc:c0:cd:96:66:9c:d5:f9:f3:a2:47:6c:
         bf:45:9f:98:41:3d:57:9a:aa:0a:87:1b:a7:d2:48:60:a3:5d:
         2d:45:4f:6f:e1:8b:5b:14:93:73:10:d8:d7:ff:ed:50:87:36:
         70:23:b3:e5:5e:4d:1c:21:76:3c:c7:b5:a5:da:fc:19:a6:8d:
         0e:5e:dd:14
-----BEGIN CERTIFICATE-----
MIID2TCCAsGgAwIBAgIJAJOlgKHg2bXDMA0GCSqGSIb3DQEBBQUAMHsxCzAJBgNV
BAYTAlVTMQswCQYDVQQIDAJDQTEhMB8GA1UECgwYSW50ZXJuZXQgV2lkZ2l0cyBQ
dHkgTHRkMRowGAYDVQQDDBFub3RyZWFsbHkuZWZmLm9yZzEgMB4GCSqGSIb3DQEJ
ARYRbm90cmVhbGx5QGVmZi5vcmcwHhcNMTIwNzA3MjAwOTQzWhcNMTMwNzA3MjAw
OTQzWjBgMQswCQYDVQQGEwJVUzELMAkGA1UECBMCQ0ExFjAUBgNVBAcTDVNhbiBG
cmFuY2lzY28xCjAIBgNVBAoTAUkxCjAIBgNVBAsTAUkxFDASBgNVBAMTC2V4YW1w
bGUuY29tMIIBIjANBgkqhkiG9w0BAQEFAAOCAQ8AMIIBCgKCAQEAy+WZ4tfDtAEQ
Y2+gW85o3AZrdpait9ejbh6/SPALvdcrCEZWK11VYEdExCyfPSKRp5cCOvSviLN2
iRt0U3u1NsYooA3LERQcjy/H7bCxSkkOGLT0xQp1Y3L31GjFNsuP8hHbSA8Xj8tK
3/BtKKXJ8zO2ryw981yIMjnYDuJNIyu+gbAsKXS3+GGBpwvoDw6/igRLvwoAEcbw
t4OVbVKHIBX3K9raq2H8lBTxuvKtehjxtqK6EytBzU+Xgh/Hjil9u4ZQE354bHTm
nQtlG363F4ufLpke2dhUX0ecyZb4hj2HQf1ncelIFzDVsu/MnpCkTDL6k7IhZpKV
YltN4ID/JQIDAQABo3sweTAJBgNVHRMEAjAAMCwGCWCGSAGG+EIBDQQfFh1PcGVu
U1NMIEdlbmVyYXRlZCBDZXJ0aWZpY2F0ZTAdBgNVHQ4EFgQUGj8AfAnIEvzvqOm1
cezQoaogHlUwHwYDVR0jBBgwFoAU+FPB6tMpNNI/teXt0MF5NNoTvOgwDQYJKoZI
hvcNAQEFBQADggEBAEvbbMhPTL5U45D7mm6c7E6vyhe1OufYELHMdzA9IDr3tmHO
HWIJqVgnqzXvvmPkGDpjBEGpmYC6HbEcHZz3C8o6i4bqOZW/yicdIRPIw/CkgQRv
bY+Mfc4xONcfBT07BTzw2uk8sxs2Tbc5gm5CjMUFAiqrPu8JNByLCCbT3kvuqNUl
zhhHiT8MPAQDpjWjIRS2/HoEdrZpi85ckDT1Jd7xwCCjOG3D77QaNos0ppHw1r5g
Oca3GwDagNzAzZZmnNX586JHbL9Fn5hBPVeaqgqHG6fSSGCjXS1FT2/hi1sUk3MQ
2Nf/7VCHNnAjs+VeTRwhdjzHtaXa/BmmjQ5e3RQ=
-----END CERTIFICATE-----
