Certificate:
    Data:
        Version: 3 (0x2)
        Serial Number:
            bc:e5:b0:84:89:13:79:d6
        Signature Algorithm: sha1WithRSAEncryption
        Issuer: C=US, ST=CA, L=San Francisco, O=Experimental Certificates, Inc, OU=Git Repository, CN=spurious.com
        Validity
            Not Before: Jul 21 19:25:32 2011 GMT
            Not After : Jul 20 19:25:32 2012 GMT
        Subject: C=LY, ST=Tarabulus, L=Tripoli, O=Internet Security Examples, CN=examp.ly
        Subject Public Key Info:
            Public Key Algorithm: rsaEncryption
            RSA Public Key: (1024 bit)
                Modulus (1024 bit):
                    00:a7:60:50:48:54:59:8c:8a:3f:13:df:3e:b9:c3:
                    ea:7a:97:9f:fa:66:f3:6e:d3:cc:6b:5e:e0:c6:e7:
                    87:58:3f:3d:6d:2d:dc:7b:7d:fb:f1:48:48:bf:0c:
                    30:d5:9c:59:2b:36:01:57:39:f4:1e:bc:d5:e3:4f:
                    35:0b:4a:bc:24:77:44:67:f6:bb:0a:2e:27:55:b5:
                    a4:94:ed:5e:85:ac:ed:31:95:97:f2:05:0e:48:84:
                    b5:cd:69:13:7d:c0:02:05:2a:9f:ad:c6:28:b7:c2:
                    0e:bf:84:63:4d:86:de:5a:f0:0e:a7:4d:23:6d:6c:
                    e4:82:2c:e5:1c:8a:76:fd:a1
                Exponent: 65537 (0x10001)
        X509v3 extensions:
            X509v3 Basic Constraints: 
                CA:FALSE
            Netscape Comment: 
                OpenSSL Generated Certificate
            X509v3 Subject Key Identifier: 
                1A:2C:51:B5:B1:C9:69:8A:0C:E0:13:7F:44:4D:8F:E0:80:4D:BE:B4
            X509v3 Authority Key Identifier: 
                keyid:86:C0:E0:2D:CC:E0:A6:27:7E:7E:12:D0:6F:F7:0D:EC:56:92:06:0C

    Signature Algorithm: sha1WithRSAEncryption
        1a:d1:3b:5f:b7:29:98:35:62:f1:25:ba:84:f7:76:cc:c3:c8:
        2e:32:8f:3e:ca:22:81:fd:17:ff:be:f2:fd:ae:05:94:20:ad:
        f9:e4:97:ef:81:f2:f6:05:1a:4b:ab:7d:d5:69:ca:63:c0:91:
        b5:09:a9:21:6d:e9:ab:10:24:bc:1e:7e:69:40:04:c7:03:7b:
        a8:c1:d4:b9:70:7b:7f:d3:a3:03:d2:99:b4:3b:b2:9d:aa:43:
        2b:b5:d8:df:47:26:58:ce:60:e5:12:5f:6c:01:01:84:a9:5c:
        60:74:2b:cb:6c:02:7b:05:d0:28:f8:f4:26:2f:5e:47:9d:cd:
        69:3c
-----BEGIN CERTIFICATE-----
MIIC8DCCAlmgAwIBAgIJALzlsISJE3nWMA0GCSqGSIb3DQEBBQUAMIGLMQswCQYD
VQQGEwJVUzELMAkGA1UECBMCQ0ExFjAUBgNVBAcTDVNhbiBGcmFuY2lzY28xJzAl
BgNVBAoTHkV4cGVyaW1lbnRhbCBDZXJ0aWZpY2F0ZXMsIEluYzEXMBUGA1UECxMO
R2l0IFJlcG9zaXRvcnkxFTATBgNVBAMTDHNwdXJpb3VzLmNvbTAeFw0xMTA3MjEx
OTI1MzJaFw0xMjA3MjAxOTI1MzJaMGsxCzAJBgNVBAYTAkxZMRIwEAYDVQQIEwlU
YXJhYnVsdXMxEDAOBgNVBAcTB1RyaXBvbGkxIzAhBgNVBAoTGkludGVybmV0IFNl
Y3VyaXR5IEV4YW1wbGVzMREwDwYDVQQDEwhleGFtcC5seTCBnzANBgkqhkiG9w0B
AQEFAAOBjQAwgYkCgYEAp2BQSFRZjIo/E98+ucPqepef+mbzbtPMa17gxueHWD89
bS3ce3378UhIvwww1ZxZKzYBVzn0HrzV4081C0q8JHdEZ/a7Ci4nVbWklO1ehazt
MZWX8gUOSIS1zWkTfcACBSqfrcYot8IOv4RjTYbeWvAOp00jbWzkgizlHIp2/aEC
AwEAAaN7MHkwCQYDVR0TBAIwADAsBglghkgBhvhCAQ0EHxYdT3BlblNTTCBHZW5l
cmF0ZWQgQ2VydGlmaWNhdGUwHQYDVR0OBBYEFBosUbWxyWmKDOATf0RNj+CATb60
MB8GA1UdIwQYMBaAFIbA4C3M4KYnfn4S0G/3DexWkgYMMA0GCSqGSIb3DQEBBQUA
A4GBABrRO1+3KZg1YvEluoT3dszDyC4yjz7KIoH9F/++8v2uBZQgrfnkl++B8vYF
GkurfdVpymPAkbUJqSFt6asQJLwefmlABMcDe6jB1Llwe3/TowPSmbQ7sp2qQyu1
2N9HJljOYOUSX2wBAYSpXGB0K8tsAnsF0Cj49CYvXkedzWk8
-----END CERTIFICATE-----
